target datalayout = "e-m:e-p270:32:32-p271:32:32-p272:64:64-i64:64-i128:128-f80:128-n8:16:32:64-S128"
target triple = "x86_64-pc-linux-gnu"

%struct._zval_struct = type { %union._zend_value, %union.anon, %union.anon.2 }
%union._zend_value = type { i64 }
%union.anon = type { i32 }
%union.anon.2 = type { i32 }
%struct._zend_refcounted_h = type { i32, %union.anon.3 }
%union.anon.3 = type { i32 }
%struct._spl_heap_object = type { ptr, i32, ptr, ptr, %struct._zend_object }
%struct._zend_object = type { %struct._zend_refcounted_h, i32, ptr, ptr, ptr, [1 x %struct._zval_struct] }
%struct._spl_ptr_heap = type { ptr, ptr, ptr, ptr, i32, i32, i64, i64 }
%struct._zend_user_iterator = type { %struct._zend_object_iterator, ptr, %struct._zval_struct }
%struct._zend_object_iterator = type { %struct._zend_object, %struct._zval_struct, ptr, i64 }

@spl_ce_RuntimeException = external global ptr, align 8
@.str = private unnamed_addr constant [58 x i8] c"Heap is corrupted, heap properties are no longer ensured.\00", align 1

; Function Attrs: nounwind uwtable
define internal ptr @spl_heap_from_obj(ptr noundef %0) #0 {
  %2 = alloca ptr, align 8
  store ptr %0, ptr %2, align 8
  %3 = load ptr, ptr %2, align 8
  %4 = getelementptr inbounds i8, ptr %3, i64 -32
  ret ptr %4
}

; Function Attrs: nounwind uwtable
define internal ptr @spl_pqueue_it_get_current_data(ptr noundef %0) #0 {
  %2 = alloca ptr, align 8
  %3 = alloca i64, align 8
  %4 = alloca ptr, align 8
  %5 = alloca ptr, align 8
  %6 = alloca ptr, align 8
  %7 = alloca ptr, align 8
  %8 = alloca ptr, align 8
  %9 = alloca ptr, align 8
  store ptr %0, ptr %6, align 8
  %10 = load ptr, ptr %6, align 8
  store ptr %10, ptr %7, align 8
  %11 = load ptr, ptr %6, align 8
  %12 = getelementptr inbounds %struct._zend_object_iterator, ptr %11, i32 0, i32 1
  %13 = getelementptr inbounds %struct._zval_struct, ptr %12, i32 0, i32 0
  %14 = load ptr, ptr %13, align 8
  %15 = call ptr @spl_heap_from_obj(ptr noundef %14)
  store ptr %15, ptr %8, align 8
  %16 = load ptr, ptr %8, align 8
  %17 = getelementptr inbounds %struct._spl_heap_object, ptr %16, i32 0, i32 0
  %18 = load ptr, ptr %17, align 8
  %19 = getelementptr inbounds %struct._spl_ptr_heap, ptr %18, i32 0, i32 5
  %20 = load i32, ptr %19, align 4
  %21 = and i32 %20, 1
  %22 = icmp ne i32 %21, 0
  br i1 %22, label %23, label %26

23:                                               ; preds = %1
  %24 = load ptr, ptr @spl_ce_RuntimeException, align 8
  %25 = call ptr @zend_throw_exception(ptr noundef %24, ptr noundef @.str, i64 noundef 0)
  store ptr null, ptr %5, align 8
  br label %63

26:                                               ; preds = %1
  %27 = load ptr, ptr %8, align 8
  %28 = getelementptr inbounds %struct._spl_heap_object, ptr %27, i32 0, i32 0
  %29 = load ptr, ptr %28, align 8
  %30 = getelementptr inbounds %struct._spl_ptr_heap, ptr %29, i32 0, i32 4
  %31 = load i32, ptr %30, align 8
  %32 = icmp eq i32 %31, 0
  br i1 %32, label %33, label %34

33:                                               ; preds = %26
  store ptr null, ptr %5, align 8
  br label %63

34:                                               ; preds = %26
  %35 = load ptr, ptr %7, align 8
  %36 = getelementptr inbounds %struct._zend_user_iterator, ptr %35, i32 0, i32 2
  store ptr %36, ptr %4, align 8
  %37 = load ptr, ptr %4, align 8
  %38 = getelementptr inbounds %struct._zval_struct, ptr %37, i32 0, i32 1
  %39 = load i8, ptr %38, align 8
  %40 = zext i8 %39 to i32
  %41 = icmp eq i32 %40, 0
  br i1 %41, label %42, label %60

42:                                               ; preds = %34
  %43 = load ptr, ptr %8, align 8
  %44 = getelementptr inbounds %struct._spl_heap_object, ptr %43, i32 0, i32 0
  %45 = load ptr, ptr %44, align 8
  store ptr %45, ptr %2, align 8
  store i64 0, ptr %3, align 8
  %46 = load ptr, ptr %2, align 8
  %47 = load ptr, ptr %46, align 8
  %48 = load ptr, ptr %2, align 8
  %49 = getelementptr inbounds %struct._spl_ptr_heap, ptr %48, i32 0, i32 7
  %50 = load i64, ptr %49, align 8
  %51 = load i64, ptr %3, align 8
  %52 = mul i64 %50, %51
  %53 = getelementptr inbounds i8, ptr %47, i64 %52
  store ptr %53, ptr %9, align 8
  %54 = load ptr, ptr %7, align 8
  %55 = getelementptr inbounds %struct._zend_user_iterator, ptr %54, i32 0, i32 2
  %56 = load ptr, ptr %9, align 8
  %57 = load ptr, ptr %8, align 8
  %58 = getelementptr inbounds %struct._spl_heap_object, ptr %57, i32 0, i32 1
  %59 = load i32, ptr %58, align 8
  call void @spl_pqueue_extract_helper(ptr noundef %55, ptr noundef %56, i32 noundef %59)
  br label %60

60:                                               ; preds = %42, %34
  %61 = load ptr, ptr %7, align 8
  %62 = getelementptr inbounds %struct._zend_user_iterator, ptr %61, i32 0, i32 2
  store ptr %62, ptr %5, align 8
  br label %63

63:                                               ; preds = %60, %33, %23
  %64 = load ptr, ptr %5, align 8
  ret ptr %64
}